; ModuleID = '29/210.c'
source_filename = "29/210.c"
target datalayout = "e-m:e-p270:32:32-p271:32:32-p272:64:64-i64:64-f80:128-n8:16:32:64-S128"
target triple = "x86_64-pc-linux-gnu"

@.str = private unnamed_addr constant [3 x i8] c"%d\00", align 1
@.str.1 = private unnamed_addr constant [6 x i8] c"%.3f\0A\00", align 1

; Function Attrs: noinline nounwind uwtable
define dso_local i32 @main() #0 {
  %1 = alloca i32, align 4
  %2 = alloca i32, align 4
  %3 = alloca i32, align 4
  %4 = alloca i32, align 4
  %5 = alloca i32, align 4
  %6 = alloca i32, align 4
  %7 = alloca i32, align 4
  %8 = alloca i32, align 4
  %9 = alloca i32, align 4
  %10 = alloca i32, align 4
  %11 = alloca i32, align 4
  %12 = alloca float, align 4
  store i32 0, i32* %1, align 4
  %13 = call i32 (i8*, ...) @__isoc99_scanf(i8* getelementptr inbounds ([3 x i8], [3 x i8]* @.str, i64 0, i64 0), i32* %4)
  store i32 2, i32* %6, align 4
  store i32 1, i32* %7, align 4
  store i32 1, i32* %8, align 4
  store i32 1, i32* %9, align 4
  store i32 0, i32* %10, align 4
  store i32 0, i32* %11, align 4
  store float 2.000000e+00, float* %12, align 4
  store i32 0, i32* %2, align 4
  br label %14

14:                                               ; preds = %49, %0
  %15 = load i32, i32* %2, align 4
  %16 = load i32, i32* %4, align 4
  %17 = icmp slt i32 %15, %16
  br i1 %17, label %18, label %52

18:                                               ; preds = %14
  %19 = call i32 (i8*, ...) @__isoc99_scanf(i8* getelementptr inbounds ([3 x i8], [3 x i8]* @.str, i64 0, i64 0), i32* %5)
  store i32 1, i32* %3, align 4
  br label %20

20:                                               ; preds = %42, %18
  %21 = load i32, i32* %3, align 4
  %22 = load i32, i32* %5, align 4
  %23 = icmp slt i32 %21, %22
  br i1 %23, label %24, label %45

24:                                               ; preds = %20
  %25 = load i32, i32* %7, align 4
  store i32 %25, i32* %10, align 4
  %26 = load i32, i32* %6, align 4
  store i32 %26, i32* %7, align 4
  %27 = load i32, i32* %6, align 4
  %28 = load i32, i32* %10, align 4
  %29 = add nsw i32 %27, %28
  store i32 %29, i32* %6, align 4
  %30 = load i32, i32* %9, align 4
  store i32 %30, i32* %11, align 4
  %31 = load i32, i32* %8, align 4
  store i32 %31, i32* %9, align 4
  %32 = load i32, i32* %8, align 4
  %33 = load i32, i32* %11, align 4
  %34 = add nsw i32 %32, %33
  store i32 %34, i32* %8, align 4
  %35 = load i32, i32* %6, align 4
  %36 = sitofp i32 %35 to float
  %37 = load i32, i32* %8, align 4
  %38 = sitofp i32 %37 to float
  %39 = fdiv float %36, %38
  %40 = load float, float* %12, align 4
  %41 = fadd float %40, %39
  store float %41, float* %12, align 4
  br label %42

42:                                               ; preds = %24
  %43 = load i32, i32* %3, align 4
  %44 = add nsw i32 %43, 1
  store i32 %44, i32* %3, align 4
  br label %20

45:                                               ; preds = %20
  %46 = load float, float* %12, align 4
  %47 = fpext float %46 to double
  %48 = call i32 (i8*, ...) @printf(i8* getelementptr inbounds ([6 x i8], [6 x i8]* @.str.1, i64 0, i64 0), double %47)
  store i32 2, i32* %6, align 4
  store i32 1, i32* %7, align 4
  store i32 1, i32* %8, align 4
  store i32 1, i32* %9, align 4
  store i32 0, i32* %10, align 4
  store i32 0, i32* %11, align 4
  store float 2.000000e+00, float* %12, align 4
  br label %49

49:                                               ; preds = %45
  %50 = load i32, i32* %2, align 4
  %51 = add nsw i32 %50, 1
  store i32 %51, i32* %2, align 4
  br label %14

52:                                               ; preds = %14
  ret i32 0
}

declare dso_local i32 @__isoc99_scanf(i8*, ...) #1

declare dso_local i32 @printf(i8*, ...) #1


!llvm.module.flags = !{!0}
!llvm.ident = !{!1}

!0 = !{i32 1, !"wchar_size", i32 4}
!1 = !{!"clang version 10.0.0-4ubuntu1 "}
