; ModuleID = 'source-C-CXX/28/210.c'
source_filename = "source-C-CXX/28/210.c"
target datalayout = "e-m:e-p270:32:32-p271:32:32-p272:64:64-i64:64-f80:128-n8:16:32:64-S128"
target triple = "x86_64-pc-linux-gnu"

@.str = private unnamed_addr constant [3 x i8] c"%d\00", align 1
@.str.1 = private unnamed_addr constant [6 x i8] c"%.3f\0A\00", align 1

; Function Attrs: nofree nounwind sspstrong uwtable
define dso_local i32 @main() local_unnamed_addr #0 {
  %1 = alloca i32, align 4
  %2 = alloca i32, align 4
  %3 = bitcast i32* %1 to i8*
  call void @llvm.lifetime.start.p0i8(i64 4, i8* nonnull %3) #3
  %4 = bitcast i32* %2 to i8*
  call void @llvm.lifetime.start.p0i8(i64 4, i8* nonnull %4) #3
  %5 = call i32 (i8*, ...) @__isoc99_scanf(i8* getelementptr inbounds ([3 x i8], [3 x i8]* @.str, i64 0, i64 0), i32* nonnull %1)
  %6 = load i32, i32* %1, align 4, !tbaa !5
  %7 = icmp sgt i32 %6, 0
  br i1 %7, label %8, label %58

8:                                                ; preds = %0, %51
  %9 = phi i32 [ %55, %51 ], [ 0, %0 ]
  %10 = call i32 (i8*, ...) @__isoc99_scanf(i8* getelementptr inbounds ([3 x i8], [3 x i8]* @.str, i64 0, i64 0), i32* nonnull %2)
  %11 = load i32, i32* %2, align 4, !tbaa !5
  %12 = icmp sgt i32 %11, 1
  br i1 %12, label %13, label %51

13:                                               ; preds = %8
  %14 = add i32 %11, -1
  %15 = and i32 %14, 1
  %16 = icmp eq i32 %11, 2
  br i1 %16, label %38, label %17

17:                                               ; preds = %13
  %18 = and i32 %14, -2
  br label %19

19:                                               ; preds = %19, %17
  %20 = phi float [ 2.000000e+00, %17 ], [ %35, %19 ]
  %21 = phi <2 x i32> [ <i32 1, i32 1>, %17 ], [ %24, %19 ]
  %22 = phi <2 x i32> [ <i32 2, i32 1>, %17 ], [ %30, %19 ]
  %23 = phi i32 [ %18, %17 ], [ %36, %19 ]
  %24 = add nsw <2 x i32> %21, %22
  %25 = sitofp <2 x i32> %24 to <2 x float>
  %26 = extractelement <2 x float> %25, i32 0
  %27 = extractelement <2 x float> %25, i32 1
  %28 = fdiv float %26, %27
  %29 = fadd float %20, %28
  %30 = add nsw <2 x i32> %22, %24
  %31 = sitofp <2 x i32> %30 to <2 x float>
  %32 = extractelement <2 x float> %31, i32 0
  %33 = extractelement <2 x float> %31, i32 1
  %34 = fdiv float %32, %33
  %35 = fadd float %29, %34
  %36 = add i32 %23, -2
  %37 = icmp eq i32 %36, 0
  br i1 %37, label %38, label %19, !llvm.loop !9

38:                                               ; preds = %19, %13
  %39 = phi float [ undef, %13 ], [ %35, %19 ]
  %40 = phi float [ 2.000000e+00, %13 ], [ %35, %19 ]
  %41 = phi <2 x i32> [ <i32 1, i32 1>, %13 ], [ %24, %19 ]
  %42 = phi <2 x i32> [ <i32 2, i32 1>, %13 ], [ %30, %19 ]
  %43 = icmp eq i32 %15, 0
  br i1 %43, label %51, label %44

44:                                               ; preds = %38
  %45 = add nsw <2 x i32> %41, %42
  %46 = sitofp <2 x i32> %45 to <2 x float>
  %47 = extractelement <2 x float> %46, i32 0
  %48 = extractelement <2 x float> %46, i32 1
  %49 = fdiv float %47, %48
  %50 = fadd float %40, %49
  br label %51

51:                                               ; preds = %44, %38, %8
  %52 = phi float [ 2.000000e+00, %8 ], [ %39, %38 ], [ %50, %44 ]
  %53 = fpext float %52 to double
  %54 = call i32 (i8*, ...) @printf(i8* nonnull dereferenceable(1) getelementptr inbounds ([6 x i8], [6 x i8]* @.str.1, i64 0, i64 0), double %53)
  %55 = add nuw nsw i32 %9, 1
  %56 = load i32, i32* %1, align 4, !tbaa !5
  %57 = icmp slt i32 %55, %56
  br i1 %57, label %8, label %58, !llvm.loop !11

58:                                               ; preds = %51, %0
  call void @llvm.lifetime.end.p0i8(i64 4, i8* nonnull %4) #3
  call void @llvm.lifetime.end.p0i8(i64 4, i8* nonnull %3) #3
  ret i32 0
}

; Function Attrs: argmemonly mustprogress nofree nosync nounwind willreturn
declare void @llvm.lifetime.start.p0i8(i64 immarg, i8* nocapture) #1

; Function Attrs: nofree nounwind
declare noundef i32 @__isoc99_scanf(i8* nocapture noundef readonly, ...) local_unnamed_addr #2

; Function Attrs: nofree nounwind
declare noundef i32 @printf(i8* nocapture noundef readonly, ...) local_unnamed_addr #2

; Function Attrs: argmemonly mustprogress nofree nosync nounwind willreturn
declare void @llvm.lifetime.end.p0i8(i64 immarg, i8* nocapture) #1


!llvm.module.flags = !{!0, !1, !2, !3}
!llvm.ident = !{!4}

!0 = !{i32 1, !"wchar_size", i32 4}
!1 = !{i32 7, !"PIC Level", i32 2}
!2 = !{i32 7, !"PIE Level", i32 2}
!3 = !{i32 7, !"uwtable", i32 1}
!4 = !{!"clang version 13.0.0"}
!5 = !{!6, !6, i64 0}
!6 = !{!"int", !7, i64 0}
!7 = !{!"omnipotent char", !8, i64 0}
!8 = !{!"Simple C/C++ TBAA"}
!9 = distinct !{!9, !10}
!10 = !{!"llvm.loop.mustprogress"}
!11 = distinct !{!11, !10}
